; Function Attrs: nounwind uwtable
define ptr @Abc_NtkAddBuffsOne(ptr noundef readonly captures(none) %0, ptr noundef %1, i32 noundef %2, i32 noundef %3) local_unnamed_addr #0 {
  %5 = getelementptr i8, ptr %1, i64 16
  %.val23 = load i32, ptr %5, align 8
  %6 = mul i32 %.val23, %3
  %7 = add i32 %6, %2
  %8 = getelementptr i8, ptr %0, i64 8
  %.val = load ptr, ptr %8, align 8
  %9 = sext i32 %7 to i64
  %10 = getelementptr inbounds ptr, ptr %.val, i64 %9
  %11 = load ptr, ptr %10, align 8
  %12 = icmp eq ptr %11, null
  br i1 %12, label %13, label %26

13:                                               ; preds = %4
  %14 = add nsw i32 %2, -1
  %15 = getelementptr i8, ptr %1, i64 20
  %.val25 = load i32, ptr %15, align 4
  %16 = lshr i32 %.val25, 12
  %17 = icmp eq i32 %14, %16
  br i1 %17, label %20, label %18

18:                                               ; preds = %13
  %19 = tail call ptr @Abc_NtkAddBuffsOne(ptr noundef nonnull %0, ptr noundef nonnull %1, i32 noundef %14, i32 noundef %3)
  br label %20

20:                                               ; preds = %13, %18
  %.1 = phi ptr [ %19, %18 ], [ %1, %13 ]
  %.val22 = load ptr, ptr %1, align 8
  %21 = tail call ptr @Abc_NtkCreateNodeBuf(ptr noundef %.val22, ptr noundef %.1) #28
  %.val24 = load i32, ptr %5, align 8
  %22 = mul i32 %.val24, %3
  %23 = add i32 %22, %2
  %.val21 = load ptr, ptr %8, align 8
  %24 = sext i32 %23 to i64
  %25 = getelementptr inbounds ptr, ptr %.val21, i64 %24
  store ptr %21, ptr %25, align 8
  br label %26

26:                                               ; preds = %20, %4
  %.0 = phi ptr [ %21, %20 ], [ %11, %4 ]
  ret ptr %.0
}